#include <math.h>
#include <stdio.h>
#include <stdlib.h>
#include <string.h>
#include <iostream>
using namespace std;

//
//  main.cpp
//  hw
//
//  Created by ? ? on 12-12-16.
//  Copyright (c) 2012? ? ?. All rights reserved.
//

int D(int month)
{
    if (month==1||month==3||month==5||month==7||month==8||month==10||month==12) {
        return 31;
    }
    if (month==4||month==6||month==9||month==11) {
        return 30;
    }
    if (month==2) {
        return 28;
    }
}

int main(int argc, const char * argv[])
{
    int x[7]={5,4,3,2,1,0,6};
    int w,month=1,days=13;
    cin>>w;
    while (month<=12) {
        int y=days%7;
        if (y==x[w-1]) {
            cout<<month<<endl;
        }
        days+=D(month);
        month++;
    }
    return 0;
}

