; ModuleID = '50/2302.cpp'
source_filename = "50/2302.cpp"
target datalayout = "e-m:e-p270:32:32-p271:32:32-p272:64:64-i64:64-f80:128-n8:16:32:64-S128"
target triple = "x86_64-pc-linux-gnu"

%"class.std::ios_base::Init" = type { i8 }
%"class.std::basic_istream" = type { i32 (...)**, i64, %"class.std::basic_ios" }
%"class.std::basic_ios" = type { %"class.std::ios_base", %"class.std::basic_ostream"*, i8, i8, %"class.std::basic_streambuf"*, %"class.std::ctype"*, %"class.std::num_put"*, %"class.std::num_get"* }
%"class.std::ios_base" = type { i32 (...)**, i64, i64, i32, i32, i32, %"struct.std::ios_base::_Callback_list"*, %"struct.std::ios_base::_Words", [8 x %"struct.std::ios_base::_Words"], i32, %"struct.std::ios_base::_Words"*, %"class.std::locale" }
%"struct.std::ios_base::_Callback_list" = type { %"struct.std::ios_base::_Callback_list"*, void (i32, %"class.std::ios_base"*, i32)*, i32, i32 }
%"struct.std::ios_base::_Words" = type { i8*, i64 }
%"class.std::locale" = type { %"class.std::locale::_Impl"* }
%"class.std::locale::_Impl" = type { i32, %"class.std::locale::facet"**, i64, %"class.std::locale::facet"**, i8** }
%"class.std::locale::facet" = type <{ i32 (...)**, i32, [4 x i8] }>
%"class.std::basic_ostream" = type { i32 (...)**, %"class.std::basic_ios" }
%"class.std::basic_streambuf" = type { i32 (...)**, i8*, i8*, i8*, i8*, i8*, i8*, %"class.std::locale" }
%"class.std::ctype" = type <{ %"class.std::locale::facet.base", [4 x i8], %struct.__locale_struct*, i8, [7 x i8], i32*, i32*, i16*, i8, [256 x i8], [256 x i8], i8, [6 x i8] }>
%"class.std::locale::facet.base" = type <{ i32 (...)**, i32 }>
%struct.__locale_struct = type { [13 x %struct.__locale_data*], i16*, i32*, i32*, [13 x i8*] }
%struct.__locale_data = type opaque
%"class.std::num_put" = type { %"class.std::locale::facet.base", [4 x i8] }
%"class.std::num_get" = type { %"class.std::locale::facet.base", [4 x i8] }

@_ZStL8__ioinit = internal global %"class.std::ios_base::Init" zeroinitializer, align 1
@__dso_handle = external hidden global i8
@__const.main.x = private unnamed_addr constant [7 x i32] [i32 5, i32 4, i32 3, i32 2, i32 1, i32 0, i32 6], align 16
@_ZSt3cin = external dso_local global %"class.std::basic_istream", align 8
@_ZSt4cout = external dso_local global %"class.std::basic_ostream", align 8
@llvm.global_ctors = appending global [1 x { i32, void ()*, i8* }] [{ i32, void ()*, i8* } { i32 65535, void ()* @_GLOBAL__sub_I_2302.cpp, i8* null }]

; Function Attrs: noinline uwtable
define internal void @__cxx_global_var_init() #0 section ".text.startup" {
  call void @_ZNSt8ios_base4InitC1Ev(%"class.std::ios_base::Init"* @_ZStL8__ioinit)
  %1 = call i32 @__cxa_atexit(void (i8*)* bitcast (void (%"class.std::ios_base::Init"*)* @_ZNSt8ios_base4InitD1Ev to void (i8*)*), i8* getelementptr inbounds (%"class.std::ios_base::Init", %"class.std::ios_base::Init"* @_ZStL8__ioinit, i32 0, i32 0), i8* @__dso_handle) #3
  ret void
}

declare dso_local void @_ZNSt8ios_base4InitC1Ev(%"class.std::ios_base::Init"*) unnamed_addr #1

; Function Attrs: nounwind
declare dso_local void @_ZNSt8ios_base4InitD1Ev(%"class.std::ios_base::Init"*) unnamed_addr #2

; Function Attrs: nounwind
declare dso_local i32 @__cxa_atexit(void (i8*)*, i8*, i8*) #3

; Function Attrs: noinline nounwind uwtable
define dso_local i32 @_Z1Di(i32 %0) #4 {
  %2 = alloca i32, align 4
  %3 = alloca i32, align 4
  store i32 %0, i32* %3, align 4
  %4 = load i32, i32* %3, align 4
  %5 = icmp eq i32 %4, 1
  br i1 %5, label %24, label %6

6:                                                ; preds = %1
  %7 = load i32, i32* %3, align 4
  %8 = icmp eq i32 %7, 3
  br i1 %8, label %24, label %9

9:                                                ; preds = %6
  %10 = load i32, i32* %3, align 4
  %11 = icmp eq i32 %10, 5
  br i1 %11, label %24, label %12

12:                                               ; preds = %9
  %13 = load i32, i32* %3, align 4
  %14 = icmp eq i32 %13, 7
  br i1 %14, label %24, label %15

15:                                               ; preds = %12
  %16 = load i32, i32* %3, align 4
  %17 = icmp eq i32 %16, 8
  br i1 %17, label %24, label %18

18:                                               ; preds = %15
  %19 = load i32, i32* %3, align 4
  %20 = icmp eq i32 %19, 10
  br i1 %20, label %24, label %21

21:                                               ; preds = %18
  %22 = load i32, i32* %3, align 4
  %23 = icmp eq i32 %22, 12
  br i1 %23, label %24, label %25

24:                                               ; preds = %21, %18, %15, %12, %9, %6, %1
  store i32 31, i32* %2, align 4
  br label %43

25:                                               ; preds = %21
  %26 = load i32, i32* %3, align 4
  %27 = icmp eq i32 %26, 4
  br i1 %27, label %37, label %28

28:                                               ; preds = %25
  %29 = load i32, i32* %3, align 4
  %30 = icmp eq i32 %29, 6
  br i1 %30, label %37, label %31

31:                                               ; preds = %28
  %32 = load i32, i32* %3, align 4
  %33 = icmp eq i32 %32, 9
  br i1 %33, label %37, label %34

34:                                               ; preds = %31
  %35 = load i32, i32* %3, align 4
  %36 = icmp eq i32 %35, 11
  br i1 %36, label %37, label %38

37:                                               ; preds = %34, %31, %28, %25
  store i32 30, i32* %2, align 4
  br label %43

38:                                               ; preds = %34
  %39 = load i32, i32* %3, align 4
  %40 = icmp eq i32 %39, 2
  br i1 %40, label %41, label %42

41:                                               ; preds = %38
  store i32 28, i32* %2, align 4
  br label %43

42:                                               ; preds = %38
  call void @llvm.trap()
  unreachable

43:                                               ; preds = %41, %37, %24
  %44 = load i32, i32* %2, align 4
  ret i32 %44
}

; Function Attrs: cold noreturn nounwind
declare void @llvm.trap() #5

; Function Attrs: noinline norecurse uwtable
define dso_local i32 @main(i32 %0, i8** %1) #6 {
  %3 = alloca i32, align 4
  %4 = alloca i32, align 4
  %5 = alloca i8**, align 8
  %6 = alloca [7 x i32], align 16
  %7 = alloca i32, align 4
  %8 = alloca i32, align 4
  %9 = alloca i32, align 4
  %10 = alloca i32, align 4
  store i32 0, i32* %3, align 4
  store i32 %0, i32* %4, align 4
  store i8** %1, i8*** %5, align 8
  %11 = bitcast [7 x i32]* %6 to i8*
  call void @llvm.memcpy.p0i8.p0i8.i64(i8* align 16 %11, i8* align 16 bitcast ([7 x i32]* @__const.main.x to i8*), i64 28, i1 false)
  store i32 1, i32* %8, align 4
  store i32 13, i32* %9, align 4
  %12 = call dereferenceable(280) %"class.std::basic_istream"* @_ZNSirsERi(%"class.std::basic_istream"* @_ZSt3cin, i32* dereferenceable(4) %7)
  br label %13

13:                                               ; preds = %30, %2
  %14 = load i32, i32* %8, align 4
  %15 = icmp sle i32 %14, 12
  br i1 %15, label %16, label %37

16:                                               ; preds = %13
  %17 = load i32, i32* %9, align 4
  %18 = srem i32 %17, 7
  store i32 %18, i32* %10, align 4
  %19 = load i32, i32* %10, align 4
  %20 = load i32, i32* %7, align 4
  %21 = sub nsw i32 %20, 1
  %22 = sext i32 %21 to i64
  %23 = getelementptr inbounds [7 x i32], [7 x i32]* %6, i64 0, i64 %22
  %24 = load i32, i32* %23, align 4
  %25 = icmp eq i32 %19, %24
  br i1 %25, label %26, label %30

26:                                               ; preds = %16
  %27 = load i32, i32* %8, align 4
  %28 = call dereferenceable(272) %"class.std::basic_ostream"* @_ZNSolsEi(%"class.std::basic_ostream"* @_ZSt4cout, i32 %27)
  %29 = call dereferenceable(272) %"class.std::basic_ostream"* @_ZNSolsEPFRSoS_E(%"class.std::basic_ostream"* %28, %"class.std::basic_ostream"* (%"class.std::basic_ostream"*)* @_ZSt4endlIcSt11char_traitsIcEERSt13basic_ostreamIT_T0_ES6_)
  br label %30

30:                                               ; preds = %26, %16
  %31 = load i32, i32* %8, align 4
  %32 = call i32 @_Z1Di(i32 %31)
  %33 = load i32, i32* %9, align 4
  %34 = add nsw i32 %33, %32
  store i32 %34, i32* %9, align 4
  %35 = load i32, i32* %8, align 4
  %36 = add nsw i32 %35, 1
  store i32 %36, i32* %8, align 4
  br label %13

37:                                               ; preds = %13
  ret i32 0
}

; Function Attrs: argmemonly nounwind willreturn
declare void @llvm.memcpy.p0i8.p0i8.i64(i8* noalias nocapture writeonly, i8* noalias nocapture readonly, i64, i1 immarg) #7

declare dso_local dereferenceable(280) %"class.std::basic_istream"* @_ZNSirsERi(%"class.std::basic_istream"*, i32* dereferenceable(4)) #1

declare dso_local dereferenceable(272) %"class.std::basic_ostream"* @_ZNSolsEi(%"class.std::basic_ostream"*, i32) #1

declare dso_local dereferenceable(272) %"class.std::basic_ostream"* @_ZNSolsEPFRSoS_E(%"class.std::basic_ostream"*, %"class.std::basic_ostream"* (%"class.std::basic_ostream"*)*) #1

declare dso_local dereferenceable(272) %"class.std::basic_ostream"* @_ZSt4endlIcSt11char_traitsIcEERSt13basic_ostreamIT_T0_ES6_(%"class.std::basic_ostream"* dereferenceable(272)) #1

; Function Attrs: noinline uwtable
define internal void @_GLOBAL__sub_I_2302.cpp() #0 section ".text.startup" {
  call void @__cxx_global_var_init()
  ret void
}


!llvm.module.flags = !{!0}
!llvm.ident = !{!1}

!0 = !{i32 1, !"wchar_size", i32 4}
!1 = !{!"clang version 10.0.0-4ubuntu1 "}
